; Function Attrs: mustprogress nounwind uwtable
define internal void @_ZN12_GLOBAL__N_118RewritesApplicatorD0Ev(ptr noundef nonnull align 8 dereferenceable(24) %0) unnamed_addr #0 align 2 {
  store ptr getelementptr inbounds inrange(-16, 40) (i8, ptr @_ZTVN12_GLOBAL__N_118RewritesApplicatorE, i64 16), ptr %0, align 8
  %2 = getelementptr inbounds nuw i8, ptr %0, i64 16
  %3 = load ptr, ptr %2, align 8
  %.not.i = icmp eq ptr %3, null
  br i1 %.not.i, label %_ZN12_GLOBAL__N_118RewritesApplicatorD2Ev.exit, label %4

4:                                                ; preds = %1
  %5 = load ptr, ptr %3, align 8
  %6 = getelementptr inbounds i8, ptr %5, i64 24
  %7 = load ptr, ptr %6, align 8
  tail call void %7(ptr noundef nonnull align 8 dereferenceable(8) %3) #16
  br label %_ZN12_GLOBAL__N_118RewritesApplicatorD2Ev.exit

_ZN12_GLOBAL__N_118RewritesApplicatorD2Ev.exit:   ; preds = %1, %4
  tail call void @_ZN5clang5arcmt16TransformActions15RewriteReceiverD2Ev(ptr noundef nonnull align 8 dereferenceable(8) %0) #16
  tail call void @_ZdlPvm(ptr noundef nonnull %0, i64 noundef 24) #17
  ret void
}